target datalayout = "e-m:e-p270:32:32-p271:32:32-p272:64:64-i64:64-i128:128-f80:128-n8:16:32:64-S128"
target triple = "x86_64-pc-linux-gnu"

%struct.Type_ = type { i32, ptr, ptr, ptr, %union.anon, ptr, ptr, %union.anon.1 }
%union.anon = type { ptr }
%union.anon.1 = type { %struct.TypeFunction }
%struct.TypeFunction = type { ptr, ptr, ptr }
%struct.TypeArray = type { ptr, i32 }
%struct.VHeader_ = type { i32, i32, [0 x i8] }

@.str.7 = private unnamed_addr constant [8 x i8] c"%s[<*>]\00", align 1

; Function Attrs: nounwind uwtable
define internal ptr @vec_new_(i64 noundef %0, i64 noundef %1) #0 {
  %3 = alloca i64, align 8
  %4 = alloca i64, align 8
  %5 = alloca ptr, align 8
  store i64 %0, ptr %3, align 8
  store i64 %1, ptr %4, align 8
  %6 = load i64, ptr %3, align 8
  %7 = load i64, ptr %4, align 8
  %8 = mul i64 %6, %7
  %9 = add i64 %8, 8
  %10 = call ptr @calloc_arena(i64 noundef %9)
  store ptr %10, ptr %5, align 8
  %11 = load i64, ptr %4, align 8
  %12 = trunc i64 %11 to i32
  %13 = load ptr, ptr %5, align 8
  %14 = getelementptr inbounds %struct.VHeader_, ptr %13, i32 0, i32 1
  store i32 %12, ptr %14, align 4
  %15 = load ptr, ptr %5, align 8
  ret ptr %15
}

; Function Attrs: nounwind uwtable
define internal ptr @expand_(ptr noundef %0, i64 noundef %1) #0 {
  %3 = alloca ptr, align 8
  %4 = alloca i64, align 8
  %5 = alloca ptr, align 8
  %6 = alloca ptr, align 8
  %7 = alloca i64, align 8
  store ptr %0, ptr %3, align 8
  store i64 %1, ptr %4, align 8
  %8 = load ptr, ptr %3, align 8
  %9 = icmp ne ptr %8, null
  br i1 %9, label %13, label %10

10:                                               ; preds = %2
  %11 = load i64, ptr %4, align 8
  %12 = call ptr @vec_new_(i64 noundef %11, i64 noundef 8)
  store ptr %12, ptr %5, align 8
  br label %16

13:                                               ; preds = %2
  %14 = load ptr, ptr %3, align 8
  %15 = getelementptr inbounds %struct.VHeader_, ptr %14, i64 -1
  store ptr %15, ptr %5, align 8
  br label %16

16:                                               ; preds = %13, %10
  %17 = load ptr, ptr %5, align 8
  %18 = getelementptr inbounds %struct.VHeader_, ptr %17, i32 0, i32 0
  %19 = load i32, ptr %18, align 4
  %20 = load ptr, ptr %5, align 8
  %21 = getelementptr inbounds %struct.VHeader_, ptr %20, i32 0, i32 1
  %22 = load i32, ptr %21, align 4
  %23 = icmp eq i32 %19, %22
  br i1 %23, label %24, label %49

24:                                               ; preds = %16
  %25 = load i64, ptr %4, align 8
  %26 = load ptr, ptr %5, align 8
  %27 = getelementptr inbounds %struct.VHeader_, ptr %26, i32 0, i32 1
  %28 = load i32, ptr %27, align 4
  %29 = shl i32 %28, 1
  %30 = zext i32 %29 to i64
  %31 = call ptr @vec_new_(i64 noundef %25, i64 noundef %30)
  store ptr %31, ptr %6, align 8
  %32 = load i64, ptr %4, align 8
  %33 = load ptr, ptr %5, align 8
  %34 = getelementptr inbounds %struct.VHeader_, ptr %33, i32 0, i32 1
  %35 = load i32, ptr %34, align 4
  %36 = zext i32 %35 to i64
  %37 = mul i64 %32, %36
  %38 = add i64 %37, 8
  store i64 %38, ptr %7, align 8
  %39 = load ptr, ptr %6, align 8
  %40 = load ptr, ptr %5, align 8
  %41 = load i64, ptr %7, align 8
  call void @llvm.memcpy.p0.p0.i64(ptr align 4 %39, ptr align 4 %40, i64 %41, i1 false)
  %42 = load ptr, ptr %6, align 8
  store ptr %42, ptr %5, align 8
  %43 = load ptr, ptr %5, align 8
  %44 = getelementptr inbounds %struct.VHeader_, ptr %43, i32 0, i32 1
  %45 = load i32, ptr %44, align 4
  %46 = shl i32 %45, 1
  %47 = load ptr, ptr %6, align 8
  %48 = getelementptr inbounds %struct.VHeader_, ptr %47, i32 0, i32 1
  store i32 %46, ptr %48, align 4
  br label %49

49:                                               ; preds = %24, %16
  %50 = load ptr, ptr %5, align 8
  %51 = getelementptr inbounds %struct.VHeader_, ptr %50, i32 0, i32 0
  %52 = load i32, ptr %51, align 4
  %53 = add i32 %52, 1
  store i32 %53, ptr %51, align 4
  %54 = load ptr, ptr %5, align 8
  %55 = getelementptr inbounds %struct.VHeader_, ptr %54, i64 1
  ret ptr %55
}

; Function Attrs: nounwind uwtable
define internal void @create_type_cache(ptr noundef %0) #0 {
  %2 = alloca i32, align 4
  %3 = alloca ptr, align 8
  %4 = alloca ptr, align 8
  %5 = alloca ptr, align 8
  %6 = alloca i32, align 4
  %7 = alloca ptr, align 8
  store ptr %0, ptr %5, align 8
  store i32 0, ptr %6, align 4
  br label %8

8:                                                ; preds = %40, %1
  %9 = load i32, ptr %6, align 4
  %10 = icmp slt i32 %9, 6
  br i1 %10, label %11, label %43

11:                                               ; preds = %8
  br label %12

12:                                               ; preds = %11
  %13 = load ptr, ptr %5, align 8
  %14 = getelementptr inbounds %struct.Type_, ptr %13, i32 0, i32 3
  %15 = load ptr, ptr %14, align 8
  %16 = call ptr @expand_(ptr noundef %15, i64 noundef 8)
  store ptr %16, ptr %7, align 8
  %17 = load ptr, ptr %7, align 8
  %18 = load ptr, ptr %5, align 8
  %19 = getelementptr inbounds %struct.Type_, ptr %18, i32 0, i32 3
  store ptr %17, ptr %19, align 8
  %20 = load ptr, ptr %5, align 8
  %21 = getelementptr inbounds %struct.Type_, ptr %20, i32 0, i32 3
  %22 = load ptr, ptr %21, align 8
  %23 = load ptr, ptr %5, align 8
  %24 = getelementptr inbounds %struct.Type_, ptr %23, i32 0, i32 3
  %25 = load ptr, ptr %24, align 8
  store ptr %25, ptr %3, align 8
  %26 = load ptr, ptr %3, align 8
  %27 = icmp ne ptr %26, null
  br i1 %27, label %29, label %28

28:                                               ; preds = %12
  store i32 0, ptr %2, align 4
  br label %34

29:                                               ; preds = %12
  %30 = load ptr, ptr %3, align 8
  store ptr %30, ptr %4, align 8
  %31 = load ptr, ptr %4, align 8
  %32 = getelementptr inbounds %struct.VHeader_, ptr %31, i64 -1
  %33 = load i32, ptr %32, align 4
  store i32 %33, ptr %2, align 4
  br label %34

34:                                               ; preds = %29, %28
  %35 = load i32, ptr %2, align 4
  %36 = sub i32 %35, 1
  %37 = zext i32 %36 to i64
  %38 = getelementptr inbounds ptr, ptr %22, i64 %37
  store ptr null, ptr %38, align 8
  br label %39

39:                                               ; preds = %34
  br label %40

40:                                               ; preds = %39
  %41 = load i32, ptr %6, align 4
  %42 = add nsw i32 %41, 1
  store i32 %42, ptr %6, align 4
  br label %8, !llvm.loop !22

43:                                               ; preds = %8
  ret void
}

; Function Attrs: nounwind uwtable
define internal ptr @type_generate_inferred_vector(ptr noundef %0, i1 noundef zeroext %1) #0 {
  %3 = alloca i32, align 4
  %4 = alloca ptr, align 8
  %5 = alloca ptr, align 8
  %6 = alloca ptr, align 8
  %7 = alloca i8, align 1
  %8 = alloca ptr, align 8
  store ptr %0, ptr %6, align 8
  %9 = zext i1 %1 to i8
  store i8 %9, ptr %7, align 1
  %10 = load i8, ptr %7, align 1
  %11 = trunc i8 %10 to i1
  br i1 %11, label %12, label %16

12:                                               ; preds = %2
  %13 = load ptr, ptr %6, align 8
  %14 = getelementptr inbounds %struct.Type_, ptr %13, i32 0, i32 1
  %15 = load ptr, ptr %14, align 8
  store ptr %15, ptr %6, align 8
  br label %16

16:                                               ; preds = %12, %2
  %17 = load ptr, ptr %6, align 8
  %18 = getelementptr inbounds %struct.Type_, ptr %17, i32 0, i32 3
  %19 = load ptr, ptr %18, align 8
  %20 = icmp ne ptr %19, null
  br i1 %20, label %23, label %21

21:                                               ; preds = %16
  %22 = load ptr, ptr %6, align 8
  call void @create_type_cache(ptr noundef %22)
  br label %23

23:                                               ; preds = %21, %16
  %24 = load ptr, ptr %6, align 8
  %25 = getelementptr inbounds %struct.Type_, ptr %24, i32 0, i32 3
  %26 = load ptr, ptr %25, align 8
  %27 = getelementptr inbounds ptr, ptr %26, i64 4
  %28 = load ptr, ptr %27, align 8
  store ptr %28, ptr %8, align 8
  %29 = load ptr, ptr %8, align 8
  %30 = icmp eq ptr %29, null
  br i1 %30, label %31, label %70

31:                                               ; preds = %23
  %32 = load ptr, ptr %6, align 8
  %33 = getelementptr inbounds %struct.Type_, ptr %32, i32 0, i32 2
  %34 = load ptr, ptr %33, align 8
  %35 = call ptr (ptr, ...) @str_printf(ptr noundef @.str.7, ptr noundef %34)
  store i32 38, ptr %3, align 4
  store ptr %35, ptr %4, align 8
  %36 = call ptr @calloc_arena(i64 noundef 80) #9
  store ptr %36, ptr %5, align 8
  %37 = load i32, ptr %3, align 4
  %38 = load ptr, ptr %5, align 8
  store i32 %37, ptr %38, align 8
  %39 = load ptr, ptr %4, align 8
  %40 = load ptr, ptr %5, align 8
  %41 = getelementptr inbounds %struct.Type_, ptr %40, i32 0, i32 2
  store ptr %39, ptr %41, align 8
  %42 = load ptr, ptr %5, align 8
  call void @global_context_add_type(ptr noundef %42) #9
  %43 = load ptr, ptr %5, align 8
  store ptr %43, ptr %8, align 8
  %44 = load ptr, ptr %6, align 8
  %45 = load ptr, ptr %8, align 8
  %46 = getelementptr inbounds %struct.Type_, ptr %45, i32 0, i32 7
  %47 = getelementptr inbounds %struct.TypeArray, ptr %46, i32 0, i32 0
  store ptr %44, ptr %47, align 8
  %48 = load ptr, ptr %8, align 8
  %49 = load ptr, ptr %6, align 8
  %50 = getelementptr inbounds %struct.Type_, ptr %49, i32 0, i32 3
  %51 = load ptr, ptr %50, align 8
  %52 = getelementptr inbounds ptr, ptr %51, i64 4
  store ptr %48, ptr %52, align 8
  %53 = load ptr, ptr %6, align 8
  %54 = load ptr, ptr %6, align 8
  %55 = getelementptr inbounds %struct.Type_, ptr %54, i32 0, i32 1
  %56 = load ptr, ptr %55, align 8
  %57 = icmp eq ptr %53, %56
  br i1 %57, label %58, label %62

58:                                               ; preds = %31
  %59 = load ptr, ptr %8, align 8
  %60 = load ptr, ptr %8, align 8
  %61 = getelementptr inbounds %struct.Type_, ptr %60, i32 0, i32 1
  store ptr %59, ptr %61, align 8
  br label %69

62:                                               ; preds = %31
  %63 = load ptr, ptr %6, align 8
  %64 = getelementptr inbounds %struct.Type_, ptr %63, i32 0, i32 1
  %65 = load ptr, ptr %64, align 8
  %66 = call ptr @type_generate_inferred_vector(ptr noundef %65, i1 noundef zeroext true)
  %67 = load ptr, ptr %8, align 8
  %68 = getelementptr inbounds %struct.Type_, ptr %67, i32 0, i32 1
  store ptr %66, ptr %68, align 8
  br label %69

69:                                               ; preds = %62, %58
  br label %70

70:                                               ; preds = %69, %23
  %71 = load ptr, ptr %8, align 8
  ret ptr %71
}